target datalayout = "e-m:e-p270:32:32-p271:32:32-p272:64:64-i64:64-i128:128-f80:128-n8:16:32:64-S128"
target triple = "x86_64-pc-linux-gnu"

; Function Attrs: mustprogress noinline uwtable
define dso_local noundef zeroext i1 @_ZN4absl12log_internal8VLogSite13SlowIsEnabledEii(ptr noundef nonnull align 8 dereferenceable(24) %0, i32 noundef %1, i32 noundef %2) #0 align 2 {
  %4 = alloca i1, align 1
  %5 = alloca ptr, align 8
  %6 = alloca i32, align 4
  %7 = alloca i32, align 4
  store ptr %0, ptr %5, align 8, !tbaa !4
  store i32 %1, ptr %6, align 4, !tbaa !9
  store i32 %2, ptr %7, align 4, !tbaa !9
  %8 = load ptr, ptr %5, align 8
  %9 = load i32, ptr %6, align 4, !tbaa !9
  %10 = icmp ne i32 %9, 2147483647
  %11 = zext i1 %10 to i64
  %12 = call i64 @llvm.expect.i64(i64 %11, i64 1)
  %13 = icmp ne i64 %12, 0
  br i1 %13, label %14, label %15

14:                                               ; preds = %3
  store i1 true, ptr %4, align 1
  br label %23

15:                                               ; preds = %3
  %16 = call noundef i32 @_ZN4absl12log_internal21RegisterAndInitializeEPNS0_8VLogSiteE(ptr noundef %8)
  store i32 %16, ptr %6, align 4, !tbaa !9
  %17 = load i32, ptr %6, align 4, !tbaa !9
  %18 = load i32, ptr %7, align 4, !tbaa !9
  %19 = icmp sge i32 %17, %18
  %20 = zext i1 %19 to i64
  %21 = call i64 @llvm.expect.i64(i64 %20, i64 0)
  %22 = icmp ne i64 %21, 0
  store i1 %22, ptr %4, align 1
  br label %23

23:                                               ; preds = %15, %14
  %24 = load i1, ptr %4, align 1
  ret i1 %24
}