; Function Attrs: mustprogress noinline uwtable
define dso_local noundef zeroext i1 @_ZN4absl12log_internal8VLogSite13SlowIsEnabledEii(ptr noundef nonnull align 8 dereferenceable(24) %0, i32 noundef %1, i32 noundef %2) local_unnamed_addr #0 align 2 {
  %.not = icmp eq i32 %1, 2147483647
  br i1 %.not, label %4, label %7, !prof !4

4:                                                ; preds = %3
  %5 = tail call noundef i32 @_ZN4absl12log_internal21RegisterAndInitializeEPNS0_8VLogSiteE(ptr noundef nonnull %0)
  %6 = icmp sge i32 %5, %2
  br label %7

7:                                                ; preds = %3, %4
  %.0 = phi i1 [ %6, %4 ], [ true, %3 ]
  ret i1 %.0
}